; Function Attrs: null_pointer_is_valid sspstrong uwtable
define internal noundef i32 @dissect_aim_generic_serverready(ptr noundef %0, ptr readnone captures(none) %1, ptr noundef %2) #0 {
  %4 = load i32, ptr @ett_generic_clientready, align 4
  %5 = tail call ptr @proto_tree_add_subtree(ptr noundef %2, ptr noundef %0, i32 noundef 0, i32 noundef -1, i32 noundef %4, ptr noundef null, ptr noundef nonnull @.str.749)
  %6 = tail call i32 @tvb_reported_length_remaining(ptr noundef %0, i32 noundef 0)
  %7 = icmp sgt i32 %6, 0
  br i1 %7, label %.lr.ph, label %._crit_edge

.lr.ph:                                           ; preds = %3, %.lr.ph
  %.09 = phi i32 [ %10, %.lr.ph ], [ 0, %3 ]
  %8 = load i32, ptr @hf_generic_family, align 4
  %9 = tail call ptr @proto_tree_add_item(ptr noundef %5, i32 noundef %8, ptr noundef %0, i32 noundef %.09, i32 noundef 2, i32 noundef 0)
  %10 = add i32 %.09, 2
  %11 = tail call i32 @tvb_reported_length_remaining(ptr noundef %0, i32 noundef %10)
  %12 = icmp sgt i32 %11, 0
  br i1 %12, label %.lr.ph, label %._crit_edge, !llvm.loop !25

._crit_edge:                                      ; preds = %.lr.ph, %3
  %.0.lcssa = phi i32 [ 0, %3 ], [ %10, %.lr.ph ]
  ret i32 %.0.lcssa
}